#include <math.h>
#include <stdio.h>
#include <stdlib.h>
#include <string.h>

int main()
{
	int n,k;
	scanf("%d",&n);
	for(k=0;k<=n;k++)
	{
		char zifuchuan[10000];
		gets(zifuchuan);
		int len;
		len=strlen(zifuchuan);
		int i,j,m=0,p=0,a,b;
		for(i=0;i<len;i++)
		{
			for(j=0;j<len;j++)
			{
				a=(int)zifuchuan[i];
				b=(int)zifuchuan[j];
				if(a==b)
					m++;
			}
			if(m==1)
			{
				printf("%c\n",zifuchuan[i]);
				break;
			}
			else if(m!=1)
				p++;
			m=0;
		}
		if(p==len&&p!=0)
		{
			printf("no\n");
		}
	}
		
	return 0;
	
}